target datalayout = "e-m:e-p270:32:32-p271:32:32-p272:64:64-i64:64-i128:128-f80:128-n8:16:32:64-S128"
target triple = "x86_64-pc-linux-gnu"

%struct.dlist_head = type { %struct.dlist_node }
%struct.dlist_node = type { ptr, ptr }
%struct.pg_atomic_uint32 = type { i32 }
%struct.PGPROC = type { %struct.dlist_node, ptr, ptr, i32, %struct.Latch, i32, i32, i32, i32, %struct.anon, i32, i32, i32, i8, i8, i8, i8, %struct.proclist_node, %struct.proclist_node, ptr, ptr, i32, i32, %struct.pg_atomic_uint64, i32, i8, i64, i32, %struct.dlist_node, [16 x %struct.dlist_head], %struct.XidCacheStatus, %struct.XidCache, i8, %struct.pg_atomic_uint32, i32, i32, i8, %struct.pg_atomic_uint32, i32, i32, i64, i64, %struct.LWLock, ptr, ptr, i8, i32, ptr, %struct.dlist_head, %struct.dlist_node }
%struct.Latch = type { i32, i32, i8, i32 }
%struct.anon = type { i32, i32 }
%struct.proclist_node = type { i32, i32 }
%struct.pg_atomic_uint64 = type { i64 }
%struct.XidCacheStatus = type { i8, i8 }
%struct.XidCache = type { [64 x i32] }
%struct.LWLock = type { i16, %struct.pg_atomic_uint32, %struct.proclist_head }
%struct.proclist_head = type { i32, i32 }
%struct.LOCKTAG = type { i32, i32, i32, i16, i8, i8 }
%struct.LOCK = type { %struct.LOCKTAG, i32, i32, %struct.dlist_head, %struct.dclist_head, [10 x i32], i32, [10 x i32], i32 }
%struct.dclist_head = type { %struct.dlist_head, i32 }
%struct.LockMethodData = type { i32, ptr, ptr, ptr }
%struct.dlist_mutable_iter = type { ptr, ptr, ptr }

@MyProc = dso_local global ptr null, align 8

; Function Attrs: inlinehint nounwind uwtable
define internal void @dlist_delete_thoroughly(ptr noundef %0) #3 {
  %2 = alloca ptr, align 8
  store ptr %0, ptr %2, align 8
  %3 = load ptr, ptr %2, align 8
  %4 = getelementptr inbounds nuw %struct.dlist_node, ptr %3, i32 0, i32 1
  %5 = load ptr, ptr %4, align 8
  %6 = load ptr, ptr %2, align 8
  %7 = getelementptr inbounds nuw %struct.dlist_node, ptr %6, i32 0, i32 0
  %8 = load ptr, ptr %7, align 8
  %9 = getelementptr inbounds nuw %struct.dlist_node, ptr %8, i32 0, i32 1
  store ptr %5, ptr %9, align 8
  %10 = load ptr, ptr %2, align 8
  %11 = getelementptr inbounds nuw %struct.dlist_node, ptr %10, i32 0, i32 0
  %12 = load ptr, ptr %11, align 8
  %13 = load ptr, ptr %2, align 8
  %14 = getelementptr inbounds nuw %struct.dlist_node, ptr %13, i32 0, i32 1
  %15 = load ptr, ptr %14, align 8
  %16 = getelementptr inbounds nuw %struct.dlist_node, ptr %15, i32 0, i32 0
  store ptr %12, ptr %16, align 8
  %17 = load ptr, ptr %2, align 8
  %18 = getelementptr inbounds nuw %struct.dlist_node, ptr %17, i32 0, i32 1
  store ptr null, ptr %18, align 8
  %19 = load ptr, ptr %2, align 8
  %20 = getelementptr inbounds nuw %struct.dlist_node, ptr %19, i32 0, i32 0
  store ptr null, ptr %20, align 8
  ret void
}

; Function Attrs: inlinehint nounwind uwtable
define internal void @pg_atomic_write_u64_impl(ptr noundef %0, i64 noundef %1) #3 {
  %3 = alloca ptr, align 8
  %4 = alloca i64, align 8
  store ptr %0, ptr %3, align 8
  store i64 %1, ptr %4, align 8
  %5 = load i64, ptr %4, align 8
  %6 = load ptr, ptr %3, align 8
  %7 = getelementptr inbounds nuw %struct.pg_atomic_uint64, ptr %6, i32 0, i32 0
  store volatile i64 %5, ptr %7, align 8
  ret void
}

; Function Attrs: inlinehint nounwind uwtable
define internal void @dlist_delete_from_thoroughly(ptr noundef %0, ptr noundef %1) #3 {
  %3 = alloca ptr, align 8
  %4 = alloca ptr, align 8
  store ptr %0, ptr %3, align 8
  store ptr %1, ptr %4, align 8
  %5 = load ptr, ptr %4, align 8
  call void @dlist_delete_thoroughly(ptr noundef %5)
  ret void
}

; Function Attrs: inlinehint nounwind uwtable
define internal void @pg_atomic_write_u64(ptr noundef %0, i64 noundef %1) #3 {
  %3 = alloca ptr, align 8
  %4 = alloca i64, align 8
  store ptr %0, ptr %3, align 8
  store i64 %1, ptr %4, align 8
  %5 = load ptr, ptr %3, align 8
  %6 = load i64, ptr %4, align 8
  call void @pg_atomic_write_u64_impl(ptr noundef %5, i64 noundef %6)
  ret void
}

; Function Attrs: inlinehint nounwind uwtable
define internal void @dclist_delete_from_thoroughly(ptr noundef %0, ptr noundef %1) #3 {
  %3 = alloca ptr, align 8
  %4 = alloca ptr, align 8
  store ptr %0, ptr %3, align 8
  store ptr %1, ptr %4, align 8
  %5 = load ptr, ptr %3, align 8
  %6 = getelementptr inbounds nuw %struct.dclist_head, ptr %5, i32 0, i32 0
  %7 = load ptr, ptr %4, align 8
  call void @dlist_delete_from_thoroughly(ptr noundef %6, ptr noundef %7)
  %8 = load ptr, ptr %3, align 8
  %9 = getelementptr inbounds nuw %struct.dclist_head, ptr %8, i32 0, i32 1
  %10 = load i32, ptr %9, align 8
  %11 = add i32 %10, -1
  store i32 %11, ptr %9, align 8
  ret void
}

; Function Attrs: inlinehint nounwind uwtable
define internal zeroext i1 @dlist_node_is_detached(ptr noundef %0) #3 {
  %2 = alloca ptr, align 8
  store ptr %0, ptr %2, align 8
  %3 = load ptr, ptr %2, align 8
  %4 = getelementptr inbounds nuw %struct.dlist_node, ptr %3, i32 0, i32 1
  %5 = load ptr, ptr %4, align 8
  %6 = icmp eq ptr %5, null
  ret i1 %6
}

; Function Attrs: nounwind uwtable
define dso_local void @ProcWakeup(ptr noundef %0, i32 noundef %1) #0 {
  %3 = alloca ptr, align 8
  %4 = alloca i32, align 4
  store ptr %0, ptr %3, align 8
  store i32 %1, ptr %4, align 4
  %5 = load ptr, ptr %3, align 8
  %6 = getelementptr inbounds nuw %struct.PGPROC, ptr %5, i32 0, i32 0
  %7 = call zeroext i1 @dlist_node_is_detached(ptr noundef %6)
  br i1 %7, label %8, label %9

8:                                                ; preds = %2
  br label %27

9:                                                ; preds = %2
  %10 = load ptr, ptr %3, align 8
  %11 = getelementptr inbounds nuw %struct.PGPROC, ptr %10, i32 0, i32 19
  %12 = load ptr, ptr %11, align 8
  %13 = getelementptr inbounds nuw %struct.LOCK, ptr %12, i32 0, i32 4
  %14 = load ptr, ptr %3, align 8
  %15 = getelementptr inbounds nuw %struct.PGPROC, ptr %14, i32 0, i32 0
  call void @dclist_delete_from_thoroughly(ptr noundef %13, ptr noundef %15)
  %16 = load ptr, ptr %3, align 8
  %17 = getelementptr inbounds nuw %struct.PGPROC, ptr %16, i32 0, i32 19
  store ptr null, ptr %17, align 8
  %18 = load ptr, ptr %3, align 8
  %19 = getelementptr inbounds nuw %struct.PGPROC, ptr %18, i32 0, i32 20
  store ptr null, ptr %19, align 8
  %20 = load i32, ptr %4, align 4
  %21 = load ptr, ptr %3, align 8
  %22 = getelementptr inbounds nuw %struct.PGPROC, ptr %21, i32 0, i32 3
  store i32 %20, ptr %22, align 8
  %23 = load ptr, ptr @MyProc, align 8
  %24 = getelementptr inbounds nuw %struct.PGPROC, ptr %23, i32 0, i32 23
  call void @pg_atomic_write_u64(ptr noundef %24, i64 noundef 0)
  %25 = load ptr, ptr %3, align 8
  %26 = getelementptr inbounds nuw %struct.PGPROC, ptr %25, i32 0, i32 4
  call void @SetLatch(ptr noundef %26)
  br label %27

27:                                               ; preds = %9, %8
  ret void
}

; Function Attrs: inlinehint nounwind uwtable
define internal zeroext i1 @dclist_is_empty(ptr noundef %0) #3 {
  %2 = alloca ptr, align 8
  store ptr %0, ptr %2, align 8
  %3 = load ptr, ptr %2, align 8
  %4 = getelementptr inbounds nuw %struct.dclist_head, ptr %3, i32 0, i32 1
  %5 = load i32, ptr %4, align 8
  %6 = icmp eq i32 %5, 0
  ret i1 %6
}

; Function Attrs: nounwind uwtable
define dso_local void @ProcLockWakeup(ptr noundef %0, ptr noundef %1) #0 {
  %3 = alloca ptr, align 8
  %4 = alloca ptr, align 8
  %5 = alloca ptr, align 8
  %6 = alloca i32, align 4
  %7 = alloca %struct.dlist_mutable_iter, align 8
  %8 = alloca i32, align 4
  %9 = alloca i32, align 4
  %10 = alloca i32, align 4
  %11 = alloca ptr, align 8
  %12 = alloca i32, align 4
  %13 = alloca i32, align 4
  %14 = alloca i32, align 4
  store ptr %0, ptr %3, align 8
  store ptr %1, ptr %4, align 8
  call void @llvm.lifetime.start.p0(i64 8, ptr %5) #10
  %15 = load ptr, ptr %4, align 8
  %16 = getelementptr inbounds nuw %struct.LOCK, ptr %15, i32 0, i32 4
  store ptr %16, ptr %5, align 8
  call void @llvm.lifetime.start.p0(i64 4, ptr %6) #10
  store i32 0, ptr %6, align 4
  call void @llvm.lifetime.start.p0(i64 24, ptr %7) #10
  %17 = load ptr, ptr %5, align 8
  %18 = call zeroext i1 @dclist_is_empty(ptr noundef %17)
  br i1 %18, label %19, label %20

19:                                               ; preds = %2
  store i32 1, ptr %8, align 4
  br label %112

20:                                               ; preds = %2
  br label %21

21:                                               ; preds = %20
  br label %22

22:                                               ; preds = %21
  br label %23

23:                                               ; preds = %22
  store i32 1, ptr %9, align 4
  br label %24

24:                                               ; preds = %23
  br label %25

25:                                               ; preds = %24
  br label %26

26:                                               ; preds = %25
  store i32 1, ptr %10, align 4
  %27 = load ptr, ptr %5, align 8
  %28 = getelementptr inbounds nuw %struct.dclist_head, ptr %27, i32 0, i32 0
  %29 = getelementptr inbounds nuw %struct.dlist_head, ptr %28, i32 0, i32 0
  %30 = getelementptr inbounds nuw %struct.dlist_mutable_iter, ptr %7, i32 0, i32 2
  store ptr %29, ptr %30, align 8
  %31 = getelementptr inbounds nuw %struct.dlist_mutable_iter, ptr %7, i32 0, i32 2
  %32 = load ptr, ptr %31, align 8
  %33 = getelementptr inbounds nuw %struct.dlist_node, ptr %32, i32 0, i32 1
  %34 = load ptr, ptr %33, align 8
  %35 = icmp ne ptr %34, null
  br i1 %35, label %36, label %41

36:                                               ; preds = %26
  %37 = getelementptr inbounds nuw %struct.dlist_mutable_iter, ptr %7, i32 0, i32 2
  %38 = load ptr, ptr %37, align 8
  %39 = getelementptr inbounds nuw %struct.dlist_node, ptr %38, i32 0, i32 1
  %40 = load ptr, ptr %39, align 8
  br label %44

41:                                               ; preds = %26
  %42 = getelementptr inbounds nuw %struct.dlist_mutable_iter, ptr %7, i32 0, i32 2
  %43 = load ptr, ptr %42, align 8
  br label %44

44:                                               ; preds = %41, %36
  %45 = phi ptr [ %40, %36 ], [ %43, %41 ]
  %46 = getelementptr inbounds nuw %struct.dlist_mutable_iter, ptr %7, i32 0, i32 0
  store ptr %45, ptr %46, align 8
  %47 = getelementptr inbounds nuw %struct.dlist_mutable_iter, ptr %7, i32 0, i32 0
  %48 = load ptr, ptr %47, align 8
  %49 = getelementptr inbounds nuw %struct.dlist_node, ptr %48, i32 0, i32 1
  %50 = load ptr, ptr %49, align 8
  %51 = getelementptr inbounds nuw %struct.dlist_mutable_iter, ptr %7, i32 0, i32 1
  store ptr %50, ptr %51, align 8
  br label %52

52:                                               ; preds = %102, %44
  %53 = getelementptr inbounds nuw %struct.dlist_mutable_iter, ptr %7, i32 0, i32 0
  %54 = load ptr, ptr %53, align 8
  %55 = getelementptr inbounds nuw %struct.dlist_mutable_iter, ptr %7, i32 0, i32 2
  %56 = load ptr, ptr %55, align 8
  %57 = icmp ne ptr %54, %56
  br i1 %57, label %58, label %111

58:                                               ; preds = %52
  call void @llvm.lifetime.start.p0(i64 8, ptr %11) #10
  br label %59

59:                                               ; preds = %58
  br label %60

60:                                               ; preds = %59
  br label %61

61:                                               ; preds = %60
  store i32 1, ptr %12, align 4
  br label %62

62:                                               ; preds = %61
  br label %63

63:                                               ; preds = %62
  br label %64

64:                                               ; preds = %63
  store i32 1, ptr %13, align 4
  %65 = getelementptr inbounds nuw %struct.dlist_mutable_iter, ptr %7, i32 0, i32 0
  %66 = load ptr, ptr %65, align 8
  %67 = getelementptr inbounds i8, ptr %66, i64 0
  store ptr %67, ptr %11, align 8
  call void @llvm.lifetime.start.p0(i64 4, ptr %14) #10
  %68 = load ptr, ptr %11, align 8
  %69 = getelementptr inbounds nuw %struct.PGPROC, ptr %68, i32 0, i32 21
  %70 = load i32, ptr %69, align 8
  store i32 %70, ptr %14, align 4
  %71 = load ptr, ptr %3, align 8
  %72 = getelementptr inbounds nuw %struct.LockMethodData, ptr %71, i32 0, i32 1
  %73 = load ptr, ptr %72, align 8
  %74 = load i32, ptr %14, align 4
  %75 = sext i32 %74 to i64
  %76 = getelementptr inbounds i32, ptr %73, i64 %75
  %77 = load i32, ptr %76, align 4
  %78 = load i32, ptr %6, align 4
  %79 = and i32 %77, %78
  %80 = icmp eq i32 %79, 0
  br i1 %80, label %81, label %96

81:                                               ; preds = %64
  %82 = load ptr, ptr %3, align 8
  %83 = load i32, ptr %14, align 4
  %84 = load ptr, ptr %4, align 8
  %85 = load ptr, ptr %11, align 8
  %86 = getelementptr inbounds nuw %struct.PGPROC, ptr %85, i32 0, i32 20
  %87 = load ptr, ptr %86, align 8
  %88 = call zeroext i1 @LockCheckConflicts(ptr noundef %82, i32 noundef %83, ptr noundef %84, ptr noundef %87)
  br i1 %88, label %96, label %89

89:                                               ; preds = %81
  %90 = load ptr, ptr %4, align 8
  %91 = load ptr, ptr %11, align 8
  %92 = getelementptr inbounds nuw %struct.PGPROC, ptr %91, i32 0, i32 20
  %93 = load ptr, ptr %92, align 8
  %94 = load i32, ptr %14, align 4
  call void @GrantLock(ptr noundef %90, ptr noundef %93, i32 noundef %94)
  %95 = load ptr, ptr %11, align 8
  call void @ProcWakeup(ptr noundef %95, i32 noundef 0)
  br label %101

96:                                               ; preds = %81, %64
  %97 = load i32, ptr %14, align 4
  %98 = shl i32 1, %97
  %99 = load i32, ptr %6, align 4
  %100 = or i32 %99, %98
  store i32 %100, ptr %6, align 4
  br label %101

101:                                              ; preds = %96, %89
  call void @llvm.lifetime.end.p0(i64 4, ptr %14) #10
  call void @llvm.lifetime.end.p0(i64 8, ptr %11) #10
  br label %102

102:                                              ; preds = %101
  %103 = getelementptr inbounds nuw %struct.dlist_mutable_iter, ptr %7, i32 0, i32 1
  %104 = load ptr, ptr %103, align 8
  %105 = getelementptr inbounds nuw %struct.dlist_mutable_iter, ptr %7, i32 0, i32 0
  store ptr %104, ptr %105, align 8
  %106 = getelementptr inbounds nuw %struct.dlist_mutable_iter, ptr %7, i32 0, i32 0
  %107 = load ptr, ptr %106, align 8
  %108 = getelementptr inbounds nuw %struct.dlist_node, ptr %107, i32 0, i32 1
  %109 = load ptr, ptr %108, align 8
  %110 = getelementptr inbounds nuw %struct.dlist_mutable_iter, ptr %7, i32 0, i32 1
  store ptr %109, ptr %110, align 8
  br label %52, !llvm.loop !33

111:                                              ; preds = %52
  store i32 0, ptr %8, align 4
  br label %112

112:                                              ; preds = %111, %19
  call void @llvm.lifetime.end.p0(i64 24, ptr %7) #10
  call void @llvm.lifetime.end.p0(i64 4, ptr %6) #10
  call void @llvm.lifetime.end.p0(i64 8, ptr %5) #10
  %113 = load i32, ptr %8, align 4
  switch i32 %113, label %115 [
    i32 0, label %114
    i32 1, label %114
  ]

114:                                              ; preds = %112, %112
  ret void

115:                                              ; preds = %112
  unreachable
}