; Function Attrs: nounwind uwtable
define dso_local void @ProcLockWakeup(ptr noundef %0, ptr noundef %1) local_unnamed_addr #0 {
  %3 = getelementptr inbounds nuw i8, ptr %1, i64 40
  %4 = getelementptr i8, ptr %1, i64 56
  %.val = load i32, ptr %4, align 8
  %5 = icmp eq i32 %.val, 0
  br i1 %5, label %.loopexit, label %6

6:                                                ; preds = %2
  %7 = getelementptr inbounds nuw i8, ptr %1, i64 48
  %8 = load ptr, ptr %7, align 8
  %.not = icmp eq ptr %8, null
  %.not232631 = icmp eq ptr %8, %3
  %.not2326 = select i1 %.not, i1 true, i1 %.not232631
  br i1 %.not2326, label %.loopexit, label %.lr.ph

.lr.ph:                                           ; preds = %6
  %9 = getelementptr inbounds nuw i8, ptr %0, i64 8
  br label %10

10:                                               ; preds = %.lr.ph, %ProcWakeup.exit
  %.028 = phi i32 [ 0, %.lr.ph ], [ %.1, %ProcWakeup.exit ]
  %.sroa.0.027 = phi ptr [ %8, %.lr.ph ], [ %.sroa.8.030, %ProcWakeup.exit ]
  %.sroa.8.0.in29 = getelementptr inbounds nuw i8, ptr %.sroa.0.027, i64 8
  %.sroa.8.030 = load ptr, ptr %.sroa.8.0.in29, align 8
  %11 = getelementptr inbounds nuw i8, ptr %.sroa.0.027, i64 128
  %12 = load i32, ptr %11, align 8
  %13 = load ptr, ptr %9, align 8
  %14 = sext i32 %12 to i64
  %15 = getelementptr inbounds i32, ptr %13, i64 %14
  %16 = load i32, ptr %15, align 4
  %17 = and i32 %16, %.028
  %18 = icmp eq i32 %17, 0
  br i1 %18, label %19, label %39

19:                                               ; preds = %10
  %20 = getelementptr inbounds nuw i8, ptr %.sroa.0.027, i64 120
  %21 = load ptr, ptr %20, align 8
  %22 = tail call zeroext i1 @LockCheckConflicts(ptr noundef nonnull %0, i32 noundef %12, ptr noundef %1, ptr noundef %21) #14
  br i1 %22, label %39, label %23

23:                                               ; preds = %19
  %24 = load ptr, ptr %20, align 8
  tail call void @GrantLock(ptr noundef %1, ptr noundef %24, i32 noundef %12) #14
  %.val.i = load ptr, ptr %.sroa.8.0.in29, align 8
  %25 = icmp eq ptr %.val.i, null
  br i1 %25, label %ProcWakeup.exit, label %26

26:                                               ; preds = %23
  %27 = getelementptr inbounds nuw i8, ptr %.sroa.0.027, i64 112
  %28 = load ptr, ptr %27, align 8
  %29 = load ptr, ptr %.sroa.0.027, align 8
  %30 = getelementptr inbounds nuw i8, ptr %29, i64 8
  store ptr %.val.i, ptr %30, align 8
  %31 = load ptr, ptr %.sroa.0.027, align 8
  store ptr %31, ptr %.val.i, align 8
  tail call void @llvm.memset.p0.i64(ptr noundef nonnull align 8 dereferenceable(16) %.sroa.0.027, i8 0, i64 16, i1 false)
  %32 = getelementptr inbounds nuw i8, ptr %28, i64 56
  %33 = load i32, ptr %32, align 8
  %34 = add i32 %33, -1
  store i32 %34, ptr %32, align 8
  %35 = getelementptr inbounds nuw i8, ptr %.sroa.0.027, i64 32
  tail call void @llvm.memset.p0.i64(ptr noundef nonnull align 8 dereferenceable(16) %27, i8 0, i64 16, i1 false)
  store i32 0, ptr %35, align 8
  %36 = load ptr, ptr @MyProc, align 8
  %37 = getelementptr inbounds nuw i8, ptr %36, i64 136
  store volatile i64 0, ptr %37, align 8
  %38 = getelementptr inbounds nuw i8, ptr %.sroa.0.027, i64 36
  tail call void @SetLatch(ptr noundef nonnull %38) #14
  br label %ProcWakeup.exit

39:                                               ; preds = %19, %10
  %40 = shl nuw i32 1, %12
  %41 = or i32 %40, %.028
  br label %ProcWakeup.exit

ProcWakeup.exit:                                  ; preds = %26, %23, %39
  %.1 = phi i32 [ %41, %39 ], [ %.028, %23 ], [ %.028, %26 ]
  %.not23 = icmp eq ptr %.sroa.8.030, %3
  br i1 %.not23, label %.loopexit, label %10, !llvm.loop !29

.loopexit:                                        ; preds = %ProcWakeup.exit, %6, %2
  ret void
}